target datalayout = "e-m:e-p270:32:32-p271:32:32-p272:64:64-i64:64-i128:128-f80:128-n8:16:32:64-S128"
target triple = "x86_64-pc-linux-gnu"

; Function Attrs: nounwind null_pointer_is_valid sspstrong uwtable
define internal zeroext i1 @is_decrypted_header_ok(ptr noundef %0, i64 noundef %1) #3 {
  %3 = alloca i1, align 1
  %4 = alloca ptr, align 8
  %5 = alloca i64, align 8
  store ptr %0, ptr %4, align 8
  store i64 %1, ptr %5, align 8
  %6 = load i64, ptr %5, align 8
  %7 = icmp ult i64 %6, 4
  br i1 %7, label %8, label %9

8:                                                ; preds = %2
  store i1 false, ptr %3, align 1
  br label %43

9:                                                ; preds = %2
  %10 = load ptr, ptr %4, align 8
  %11 = getelementptr i8, ptr %10, i64 0
  %12 = load i8, ptr %11, align 1
  %13 = zext i8 %12 to i32
  %14 = icmp eq i32 %13, 252
  br i1 %14, label %21, label %15

15:                                               ; preds = %9
  %16 = load ptr, ptr %4, align 8
  %17 = getelementptr i8, ptr %16, i64 0
  %18 = load i8, ptr %17, align 1
  %19 = zext i8 %18 to i32
  %20 = icmp eq i32 %19, 254
  br i1 %20, label %21, label %40

21:                                               ; preds = %15, %9
  %22 = load ptr, ptr %4, align 8
  %23 = getelementptr i8, ptr %22, i64 1
  %24 = load i8, ptr %23, align 1
  %25 = zext i8 %24 to i32
  %26 = icmp eq i32 %25, 83
  br i1 %26, label %39, label %27

27:                                               ; preds = %21
  %28 = load ptr, ptr %4, align 8
  %29 = getelementptr i8, ptr %28, i64 2
  %30 = load i8, ptr %29, align 1
  %31 = zext i8 %30 to i32
  %32 = icmp eq i32 %31, 77
  br i1 %32, label %39, label %33

33:                                               ; preds = %27
  %34 = load ptr, ptr %4, align 8
  %35 = getelementptr i8, ptr %34, i64 3
  %36 = load i8, ptr %35, align 1
  %37 = zext i8 %36 to i32
  %38 = icmp eq i32 %37, 66
  br i1 %38, label %39, label %40

39:                                               ; preds = %33, %27, %21
  store i1 true, ptr %3, align 1
  br label %43

40:                                               ; preds = %33, %15
  br label %41

41:                                               ; preds = %40
  br label %42

42:                                               ; preds = %41
  store i1 false, ptr %3, align 1
  br label %43

43:                                               ; preds = %42, %39, %8
  %44 = load i1, ptr %3, align 1
  ret i1 %44
}