; Function Attrs: mustprogress nofree norecurse nosync nounwind null_pointer_is_valid sspstrong willreturn memory(argmem: read) uwtable
define internal fastcc noundef zeroext i1 @is_decrypted_header_ok(ptr noundef readonly captures(none) %0, i64 noundef range(i64 0, 4294967296) %1) unnamed_addr #3 {
  %3 = icmp samesign ult i64 %1, 4
  br i1 %3, label %19, label %4

4:                                                ; preds = %2
  %5 = load i8, ptr %0, align 1
  switch i8 %5, label %18 [
    i8 -4, label %6
    i8 -2, label %6
  ]

6:                                                ; preds = %4, %4
  %7 = getelementptr i8, ptr %0, i64 1
  %8 = load i8, ptr %7, align 1
  %9 = icmp eq i8 %8, 83
  br i1 %9, label %19, label %10

10:                                               ; preds = %6
  %11 = getelementptr i8, ptr %0, i64 2
  %12 = load i8, ptr %11, align 1
  %13 = icmp eq i8 %12, 77
  br i1 %13, label %19, label %14

14:                                               ; preds = %10
  %15 = getelementptr i8, ptr %0, i64 3
  %16 = load i8, ptr %15, align 1
  %17 = icmp eq i8 %16, 66
  br i1 %17, label %19, label %18

18:                                               ; preds = %4, %14
  br label %19

19:                                               ; preds = %6, %10, %14, %2, %18
  %.0 = phi i1 [ false, %18 ], [ false, %2 ], [ true, %14 ], [ true, %10 ], [ true, %6 ]
  ret i1 %.0
}